target datalayout = "e-m:e-p270:32:32-p271:32:32-p272:64:64-i64:64-i128:128-f80:128-n8:16:32:64-S128"
target triple = "x86_64-pc-linux-gnu"

%"class.vcg::Point3.2" = type { [3 x double] }

; Function Attrs: mustprogress nounwind uwtable
define linkonce_odr void @_ZN3vcg6Point3IdEC2Eddd(ptr noundef nonnull align 8 dereferenceable(24) %0, double noundef %1, double noundef %2, double noundef %3) unnamed_addr #0 comdat align 2 {
  %5 = alloca ptr, align 8
  %6 = alloca double, align 8
  %7 = alloca double, align 8
  %8 = alloca double, align 8
  store ptr %0, ptr %5, align 8
  store double %1, ptr %6, align 8
  store double %2, ptr %7, align 8
  store double %3, ptr %8, align 8
  %9 = load ptr, ptr %5, align 8
  %10 = load double, ptr %6, align 8
  %11 = getelementptr inbounds %"class.vcg::Point3.2", ptr %9, i32 0, i32 0
  %12 = getelementptr inbounds [3 x double], ptr %11, i64 0, i64 0
  store double %10, ptr %12, align 8
  %13 = load double, ptr %7, align 8
  %14 = getelementptr inbounds %"class.vcg::Point3.2", ptr %9, i32 0, i32 0
  %15 = getelementptr inbounds [3 x double], ptr %14, i64 0, i64 1
  store double %13, ptr %15, align 8
  %16 = load double, ptr %8, align 8
  %17 = getelementptr inbounds %"class.vcg::Point3.2", ptr %9, i32 0, i32 0
  %18 = getelementptr inbounds [3 x double], ptr %17, i64 0, i64 2
  store double %16, ptr %18, align 8
  ret void
}

; Function Attrs: mustprogress nounwind uwtable
define linkonce_odr noundef nonnull align 8 dereferenceable(8) ptr @_ZN3vcg6Point3IdEixEi(ptr noundef nonnull align 8 dereferenceable(24) %0, i32 noundef %1) #0 comdat align 2 {
  %3 = alloca ptr, align 8
  %4 = alloca i32, align 4
  store ptr %0, ptr %3, align 8
  store i32 %1, ptr %4, align 4
  %5 = load ptr, ptr %3, align 8
  %6 = getelementptr inbounds %"class.vcg::Point3.2", ptr %5, i32 0, i32 0
  %7 = load i32, ptr %4, align 4
  %8 = sext i32 %7 to i64
  %9 = getelementptr inbounds [3 x double], ptr %6, i64 0, i64 %8
  ret ptr %9
}

; Function Attrs: mustprogress nounwind uwtable
define linkonce_odr noundef nonnull align 8 dereferenceable(8) ptr @_ZNK3vcg6Point3IdEixEi(ptr noundef nonnull align 8 dereferenceable(24) %0, i32 noundef %1) #0 comdat align 2 {
  %3 = alloca ptr, align 8
  %4 = alloca i32, align 4
  store ptr %0, ptr %3, align 8
  store i32 %1, ptr %4, align 4
  %5 = load ptr, ptr %3, align 8
  %6 = getelementptr inbounds %"class.vcg::Point3.2", ptr %5, i32 0, i32 0
  %7 = load i32, ptr %4, align 4
  %8 = sext i32 %7 to i64
  %9 = getelementptr inbounds [3 x double], ptr %6, i64 0, i64 %8
  ret ptr %9
}

; Function Attrs: mustprogress uwtable
define linkonce_odr void @_ZNK3vcg6Point3IdEdvEd(ptr dead_on_unwind noalias writable sret(%"class.vcg::Point3.2") align 8 %0, ptr noundef nonnull align 8 dereferenceable(24) %1, double noundef %2) #1 comdat align 2 {
  %4 = alloca ptr, align 8
  %5 = alloca double, align 8
  store ptr %1, ptr %4, align 8
  store double %2, ptr %5, align 8
  %6 = load ptr, ptr %4, align 8
  %7 = getelementptr inbounds %"class.vcg::Point3.2", ptr %6, i32 0, i32 0
  %8 = getelementptr inbounds [3 x double], ptr %7, i64 0, i64 0
  %9 = load double, ptr %8, align 8
  %10 = load double, ptr %5, align 8
  %11 = fdiv double %9, %10
  %12 = getelementptr inbounds %"class.vcg::Point3.2", ptr %6, i32 0, i32 0
  %13 = getelementptr inbounds [3 x double], ptr %12, i64 0, i64 1
  %14 = load double, ptr %13, align 8
  %15 = load double, ptr %5, align 8
  %16 = fdiv double %14, %15
  %17 = getelementptr inbounds %"class.vcg::Point3.2", ptr %6, i32 0, i32 0
  %18 = getelementptr inbounds [3 x double], ptr %17, i64 0, i64 2
  %19 = load double, ptr %18, align 8
  %20 = load double, ptr %5, align 8
  %21 = fdiv double %19, %20
  call void @_ZN3vcg6Point3IdEC2Eddd(ptr noundef nonnull align 8 dereferenceable(24) %0, double noundef %11, double noundef %16, double noundef %21)
  ret void
}

; Function Attrs: mustprogress uwtable
define linkonce_odr void @_ZNK3vcg6Point3IdEmiERKS1_(ptr dead_on_unwind noalias writable sret(%"class.vcg::Point3.2") align 8 %0, ptr noundef nonnull align 8 dereferenceable(24) %1, ptr noundef nonnull align 8 dereferenceable(24) %2) #1 comdat align 2 {
  %4 = alloca ptr, align 8
  %5 = alloca ptr, align 8
  store ptr %1, ptr %4, align 8
  store ptr %2, ptr %5, align 8
  %6 = load ptr, ptr %4, align 8
  %7 = getelementptr inbounds %"class.vcg::Point3.2", ptr %6, i32 0, i32 0
  %8 = getelementptr inbounds [3 x double], ptr %7, i64 0, i64 0
  %9 = load double, ptr %8, align 8
  %10 = load ptr, ptr %5, align 8
  %11 = getelementptr inbounds %"class.vcg::Point3.2", ptr %10, i32 0, i32 0
  %12 = getelementptr inbounds [3 x double], ptr %11, i64 0, i64 0
  %13 = load double, ptr %12, align 8
  %14 = fsub double %9, %13
  %15 = getelementptr inbounds %"class.vcg::Point3.2", ptr %6, i32 0, i32 0
  %16 = getelementptr inbounds [3 x double], ptr %15, i64 0, i64 1
  %17 = load double, ptr %16, align 8
  %18 = load ptr, ptr %5, align 8
  %19 = getelementptr inbounds %"class.vcg::Point3.2", ptr %18, i32 0, i32 0
  %20 = getelementptr inbounds [3 x double], ptr %19, i64 0, i64 1
  %21 = load double, ptr %20, align 8
  %22 = fsub double %17, %21
  %23 = getelementptr inbounds %"class.vcg::Point3.2", ptr %6, i32 0, i32 0
  %24 = getelementptr inbounds [3 x double], ptr %23, i64 0, i64 2
  %25 = load double, ptr %24, align 8
  %26 = load ptr, ptr %5, align 8
  %27 = getelementptr inbounds %"class.vcg::Point3.2", ptr %26, i32 0, i32 0
  %28 = getelementptr inbounds [3 x double], ptr %27, i64 0, i64 2
  %29 = load double, ptr %28, align 8
  %30 = fsub double %25, %29
  call void @_ZN3vcg6Point3IdEC2Eddd(ptr noundef nonnull align 8 dereferenceable(24) %0, double noundef %14, double noundef %22, double noundef %30)
  ret void
}

; Function Attrs: mustprogress uwtable
define void @_ZN3vcg15CoordinateFrame14drawTickedLineERKNS_6Point3IdEES4_fff(ptr noundef nonnull align 8 dereferenceable(24) %0, ptr noundef nonnull align 8 dereferenceable(24) %1, float noundef %2, float noundef %3, float noundef %4) #1 align 2 {
  %6 = alloca ptr, align 8
  %7 = alloca ptr, align 8
  %8 = alloca float, align 4
  %9 = alloca float, align 4
  %10 = alloca float, align 4
  %11 = alloca %"class.vcg::Point3.2", align 8
  %12 = alloca %"class.vcg::Point3.2", align 8
  %13 = alloca float, align 4
  store ptr %0, ptr %6, align 8
  store ptr %1, ptr %7, align 8
  store float %2, ptr %8, align 4
  store float %3, ptr %9, align 4
  store float %4, ptr %10, align 4
  %14 = load ptr, ptr %7, align 8
  %15 = load ptr, ptr %6, align 8
  call void @_ZNK3vcg6Point3IdEmiERKS1_(ptr dead_on_unwind writable sret(%"class.vcg::Point3.2") align 8 %11, ptr noundef nonnull align 8 dereferenceable(24) %14, ptr noundef nonnull align 8 dereferenceable(24) %15)
  %16 = load float, ptr %8, align 4
  %17 = fpext float %16 to double
  call void @_ZNK3vcg6Point3IdEdvEd(ptr dead_on_unwind writable sret(%"class.vcg::Point3.2") align 8 %12, ptr noundef nonnull align 8 dereferenceable(24) %11, double noundef %17)
  call void @llvm.memcpy.p0.p0.i64(ptr align 8 %11, ptr align 8 %12, i64 24, i1 false)
  call void @glBegin(i32 noundef 0)
  %18 = load float, ptr %9, align 4
  store float %18, ptr %13, align 4
  br label %19

19:                                               ; preds = %51, %5
  %20 = load float, ptr %13, align 4
  %21 = load float, ptr %8, align 4
  %22 = fcmp olt float %20, %21
  br i1 %22, label %23, label %55

23:                                               ; preds = %19
  %24 = load ptr, ptr %6, align 8
  %25 = call noundef nonnull align 8 dereferenceable(8) ptr @_ZNK3vcg6Point3IdEixEi(ptr noundef nonnull align 8 dereferenceable(24) %24, i32 noundef 0)
  %26 = load double, ptr %25, align 8
  %27 = load float, ptr %13, align 4
  %28 = fpext float %27 to double
  %29 = call noundef nonnull align 8 dereferenceable(8) ptr @_ZN3vcg6Point3IdEixEi(ptr noundef nonnull align 8 dereferenceable(24) %11, i32 noundef 0)
  %30 = load double, ptr %29, align 8
  %31 = call double @llvm.fmuladd.f64(double %28, double %30, double %26)
  %32 = fptrunc double %31 to float
  %33 = load ptr, ptr %6, align 8
  %34 = call noundef nonnull align 8 dereferenceable(8) ptr @_ZNK3vcg6Point3IdEixEi(ptr noundef nonnull align 8 dereferenceable(24) %33, i32 noundef 1)
  %35 = load double, ptr %34, align 8
  %36 = load float, ptr %13, align 4
  %37 = fpext float %36 to double
  %38 = call noundef nonnull align 8 dereferenceable(8) ptr @_ZN3vcg6Point3IdEixEi(ptr noundef nonnull align 8 dereferenceable(24) %11, i32 noundef 1)
  %39 = load double, ptr %38, align 8
  %40 = call double @llvm.fmuladd.f64(double %37, double %39, double %35)
  %41 = fptrunc double %40 to float
  %42 = load ptr, ptr %6, align 8
  %43 = call noundef nonnull align 8 dereferenceable(8) ptr @_ZNK3vcg6Point3IdEixEi(ptr noundef nonnull align 8 dereferenceable(24) %42, i32 noundef 2)
  %44 = load double, ptr %43, align 8
  %45 = load float, ptr %13, align 4
  %46 = fpext float %45 to double
  %47 = call noundef nonnull align 8 dereferenceable(8) ptr @_ZN3vcg6Point3IdEixEi(ptr noundef nonnull align 8 dereferenceable(24) %11, i32 noundef 2)
  %48 = load double, ptr %47, align 8
  %49 = call double @llvm.fmuladd.f64(double %46, double %48, double %44)
  %50 = fptrunc double %49 to float
  call void @glVertex3f(float noundef %32, float noundef %41, float noundef %50)
  br label %51

51:                                               ; preds = %23
  %52 = load float, ptr %9, align 4
  %53 = load float, ptr %13, align 4
  %54 = fadd float %53, %52
  store float %54, ptr %13, align 4
  br label %19, !llvm.loop !9

55:                                               ; preds = %19
  call void @glEnd()
  call void @glPushAttrib(i32 noundef 2)
  %56 = load float, ptr %10, align 4
  %57 = fmul float %56, 3.000000e+00
  call void @glPointSize(float noundef %57)
  call void @glBegin(i32 noundef 0)
  %58 = load ptr, ptr %6, align 8
  %59 = call noundef nonnull align 8 dereferenceable(8) ptr @_ZNK3vcg6Point3IdEixEi(ptr noundef nonnull align 8 dereferenceable(24) %58, i32 noundef 0)
  %60 = load double, ptr %59, align 8
  %61 = load float, ptr %8, align 4
  %62 = fpext float %61 to double
  %63 = call noundef nonnull align 8 dereferenceable(8) ptr @_ZN3vcg6Point3IdEixEi(ptr noundef nonnull align 8 dereferenceable(24) %11, i32 noundef 0)
  %64 = load double, ptr %63, align 8
  %65 = call double @llvm.fmuladd.f64(double %62, double %64, double %60)
  %66 = fptrunc double %65 to float
  %67 = load ptr, ptr %6, align 8
  %68 = call noundef nonnull align 8 dereferenceable(8) ptr @_ZNK3vcg6Point3IdEixEi(ptr noundef nonnull align 8 dereferenceable(24) %67, i32 noundef 1)
  %69 = load double, ptr %68, align 8
  %70 = load float, ptr %8, align 4
  %71 = fpext float %70 to double
  %72 = call noundef nonnull align 8 dereferenceable(8) ptr @_ZN3vcg6Point3IdEixEi(ptr noundef nonnull align 8 dereferenceable(24) %11, i32 noundef 1)
  %73 = load double, ptr %72, align 8
  %74 = call double @llvm.fmuladd.f64(double %71, double %73, double %69)
  %75 = fptrunc double %74 to float
  %76 = load ptr, ptr %6, align 8
  %77 = call noundef nonnull align 8 dereferenceable(8) ptr @_ZNK3vcg6Point3IdEixEi(ptr noundef nonnull align 8 dereferenceable(24) %76, i32 noundef 2)
  %78 = load double, ptr %77, align 8
  %79 = load float, ptr %8, align 4
  %80 = fpext float %79 to double
  %81 = call noundef nonnull align 8 dereferenceable(8) ptr @_ZN3vcg6Point3IdEixEi(ptr noundef nonnull align 8 dereferenceable(24) %11, i32 noundef 2)
  %82 = load double, ptr %81, align 8
  %83 = call double @llvm.fmuladd.f64(double %80, double %82, double %78)
  %84 = fptrunc double %83 to float
  call void @glVertex3f(float noundef %66, float noundef %75, float noundef %84)
  call void @glEnd()
  call void @glPopAttrib()
  ret void
}