; Function Attrs: mustprogress uwtable
define void @_ZN3vcg15CoordinateFrame14drawTickedLineERKNS_6Point3IdEES4_fff(ptr nocapture noundef nonnull readonly align 8 dereferenceable(24) %0, ptr nocapture noundef nonnull readonly align 8 dereferenceable(24) %1, float noundef %2, float noundef %3, float noundef %4) local_unnamed_addr #1 align 2 {
  %6 = load double, ptr %1, align 8, !noalias !53
  %7 = load double, ptr %0, align 8, !noalias !53
  %8 = fsub double %6, %7
  %9 = getelementptr inbounds i8, ptr %1, i64 8
  %10 = load double, ptr %9, align 8, !noalias !53
  %11 = getelementptr inbounds i8, ptr %0, i64 8
  %12 = load double, ptr %11, align 8, !noalias !53
  %13 = fsub double %10, %12
  %14 = getelementptr inbounds i8, ptr %1, i64 16
  %15 = load double, ptr %14, align 8, !noalias !53
  %16 = getelementptr inbounds i8, ptr %0, i64 16
  %17 = load double, ptr %16, align 8, !noalias !53
  %18 = fsub double %15, %17
  %19 = fpext float %2 to double
  %20 = fdiv double %8, %19
  %21 = fdiv double %13, %19
  %22 = fdiv double %18, %19
  tail call void @glBegin(i32 noundef 0)
  %23 = fcmp olt float %3, %2
  br i1 %23, label %.lr.ph, label %._crit_edge

.lr.ph:                                           ; preds = %5, %.lr.ph
  %.028 = phi float [ %34, %.lr.ph ], [ %3, %5 ]
  %24 = load double, ptr %0, align 8
  %25 = fpext float %.028 to double
  %26 = tail call double @llvm.fmuladd.f64(double %25, double %20, double %24)
  %27 = fptrunc double %26 to float
  %28 = load double, ptr %11, align 8
  %29 = tail call double @llvm.fmuladd.f64(double %25, double %21, double %28)
  %30 = fptrunc double %29 to float
  %31 = load double, ptr %16, align 8
  %32 = tail call double @llvm.fmuladd.f64(double %25, double %22, double %31)
  %33 = fptrunc double %32 to float
  tail call void @glVertex3f(float noundef %27, float noundef %30, float noundef %33)
  %34 = fadd float %.028, %3
  %35 = fcmp olt float %34, %2
  br i1 %35, label %.lr.ph, label %._crit_edge, !llvm.loop !56

._crit_edge:                                      ; preds = %.lr.ph, %5
  tail call void @glEnd()
  tail call void @glPushAttrib(i32 noundef 2)
  %36 = fmul float %4, 3.000000e+00
  tail call void @glPointSize(float noundef %36)
  tail call void @glBegin(i32 noundef 0)
  %37 = load double, ptr %0, align 8
  %38 = tail call double @llvm.fmuladd.f64(double %19, double %20, double %37)
  %39 = fptrunc double %38 to float
  %40 = load double, ptr %11, align 8
  %41 = tail call double @llvm.fmuladd.f64(double %19, double %21, double %40)
  %42 = fptrunc double %41 to float
  %43 = load double, ptr %16, align 8
  %44 = tail call double @llvm.fmuladd.f64(double %19, double %22, double %43)
  %45 = fptrunc double %44 to float
  tail call void @glVertex3f(float noundef %39, float noundef %42, float noundef %45)
  tail call void @glEnd()
  tail call void @glPopAttrib()
  ret void
}